; Function Attrs: mustprogress nofree norecurse nosync nounwind willreturn memory(argmem: read) uwtable
define noundef i32 @_ZNK8proxygen11SessionPool14getNumSessionsEv(ptr nocapture noundef nonnull readonly align 8 dereferenceable(136) %this) local_unnamed_addr #6 align 2 personality ptr @__gxx_personality_v0 {
entry:
  %idleSessionList_ = getelementptr inbounds i8, ptr %this, i64 40
  %0 = load i64, ptr %idleSessionList_, align 8
  %unfilledSessionList_ = getelementptr inbounds i8, ptr %this, i64 64
  %1 = load i64, ptr %unfilledSessionList_, align 8
  %add = add i64 %1, %0
  %fullSessionList_ = getelementptr inbounds i8, ptr %this, i64 88
  %2 = load i64, ptr %fullSessionList_, align 8
  %add4 = add i64 %add, %2
  %conv = trunc i64 %add4 to i32
  ret i32 %conv
}